    Certificate:
    Data:
        Version: 3 (0x2)
        Serial Number:
            68:1d:01:6c:7a:3c:e3:02:25:a5:01:94:28:47:57:71

    Signature Algorithm: ecdsa-with-SHA384

        Issuer:
            stateOrProvinceName       = California
            organizationName          = Apple Inc.
            commonName                = Apple WebAuthn Root CA

        Validity
            Not Before: Mar 18 18:21:32 2020 GMT
            Not After : Mar 15 00:00:00 2045 GMT

        Subject:
            stateOrProvinceName       = California
            organizationName          = Apple Inc.
            commonName                = Apple WebAuthn Root CA

        Subject Public Key Info:
            Public Key Algorithm: id-ecPublicKey
                ASN1 OID: secp384r1

        X509v3 extensions:
            X509v3 Basic Constraints: critical
                CA:TRUE
            X509v3 Subject Key Identifier:
                26:D7:64:D9:C5:78:C2:5A:67:D1:A7:DE:6B:12:D0:1B:63:F1:C6:D7
            X509v3 Key Usage: critical
                Certificate Sign, CRL Sign

-----BEGIN CERTIFICATE-----
MIICEjCCAZmgAwIBAgIQaB0BbHo84wIlpQGUKEdXcTAKBggqhkjOPQQDAzBLMR8w
HQYDVQQDDBZBcHBsZSBXZWJBdXRobiBSb290IENBMRMwEQYDVQQKDApBcHBsZSBJ
bmMuMRMwEQYDVQQIDApDYWxpZm9ybmlhMB4XDTIwMDMxODE4MjEzMloXDTQ1MDMx
NTAwMDAwMFowSzEfMB0GA1UEAwwWQXBwbGUgV2ViQXV0aG4gUm9vdCBDQTETMBEG
A1UECgwKQXBwbGUgSW5jLjETMBEGA1UECAwKQ2FsaWZvcm5pYTB2MBAGByqGSM49
AgEGBSuBBAAiA2IABCJCQ2pTVhzjl4Wo6IhHtMSAzO2cv+H9DQKev3//fG59G11k
xu9eI0/7o6V5uShBpe1u6l6mS19S1FEh6yGljnZAJ+2GNP1mi/YK2kSXIuTHjxA/
pcoRf7XkOtO4o1qlcaNCMEAwDwYDVR0TAQH/BAUwAwEB/zAdBgNVHQ4EFgQUJtdk
2cV4wlpn0afeaxLQG2PxxtcwDgYDVR0PAQH/BAQDAgEGMAoGCCqGSM49BAMDA2cA
MGQCMFrZ+9DsJ1PW9hfNdBywZDsWDbWFp28it1d/5w2RPkRX3Bbn/UbDTNLx7Jr3
jAGGiQIwHFj+dJZYUJR786osByBelJYsVZd2GbHQu209b5RCmGQ21gpSAk9QZW4B
1bWeT0vT
-----END CERTIFICATE-----
